target datalayout = "e-m:e-p270:32:32-p271:32:32-p272:64:64-i64:64-i128:128-f80:128-n8:16:32:64-S128"
target triple = "x86_64-pc-linux-gnu"

%"struct.Luau::CodeGen::A64::RegisterA64" = type { i8 }
%"struct.Luau::CodeGen::A64::IrRegAllocA64" = type <{ ptr, ptr, %"struct.Luau::CodeGen::A64::IrRegAllocA64::Set", %"struct.Luau::CodeGen::A64::IrRegAllocA64::Set", %"class.std::vector", i32, i8, [3 x i8] }>
%"struct.Luau::CodeGen::A64::IrRegAllocA64::Set" = type { i32, i32, i32, [32 x i32] }
%"class.std::vector" = type { %"struct.std::_Vector_base" }
%"struct.std::_Vector_base" = type { %"struct.std::_Vector_base<Luau::CodeGen::A64::IrRegAllocA64::Spill, std::allocator<Luau::CodeGen::A64::IrRegAllocA64::Spill>>::_Vector_impl" }
%"struct.std::_Vector_base<Luau::CodeGen::A64::IrRegAllocA64::Spill, std::allocator<Luau::CodeGen::A64::IrRegAllocA64::Spill>>::_Vector_impl" = type { %"struct.std::_Vector_base<Luau::CodeGen::A64::IrRegAllocA64::Spill, std::allocator<Luau::CodeGen::A64::IrRegAllocA64::Spill>>::_Vector_impl_data" }
%"struct.std::_Vector_base<Luau::CodeGen::A64::IrRegAllocA64::Spill, std::allocator<Luau::CodeGen::A64::IrRegAllocA64::Spill>>::_Vector_impl_data" = type { ptr, ptr, ptr }
%"struct.Luau::CodeGen::A64::IrRegAllocA64::Spill" = type { i32, %"struct.Luau::CodeGen::A64::RegisterA64", i8 }

; Function Attrs: mustprogress nounwind uwtable
define linkonce_odr dso_local void @_ZNSt12_Destroy_auxILb1EE9__destroyIPN4Luau7CodeGen3A6413IrRegAllocA645SpillEEEvT_S8_(ptr noundef %0, ptr noundef %1) #1 comdat align 2 {
  %3 = alloca ptr, align 8
  %4 = alloca ptr, align 8
  store ptr %0, ptr %3, align 8, !tbaa !122
  store ptr %1, ptr %4, align 8, !tbaa !122
  ret void
}

; Function Attrs: inlinehint mustprogress uwtable
define linkonce_odr dso_local void @_ZSt8_DestroyIPN4Luau7CodeGen3A6413IrRegAllocA645SpillEEvT_S6_(ptr noundef %0, ptr noundef %1) #8 comdat {
  %3 = alloca ptr, align 8
  %4 = alloca ptr, align 8
  store ptr %0, ptr %3, align 8, !tbaa !122
  store ptr %1, ptr %4, align 8, !tbaa !122
  %5 = load ptr, ptr %3, align 8, !tbaa !122
  %6 = load ptr, ptr %4, align 8, !tbaa !122
  call void @_ZNSt12_Destroy_auxILb1EE9__destroyIPN4Luau7CodeGen3A6413IrRegAllocA645SpillEEEvT_S8_(ptr noundef %5, ptr noundef %6)
  ret void
}

; Function Attrs: noinline noreturn nounwind uwtable
define linkonce_odr hidden void @__clang_call_terminate(ptr noundef %0) #11 comdat {
  %2 = call ptr @__cxa_begin_catch(ptr %0) #16
  call void @_ZSt9terminatev() #17
  unreachable
}

; Function Attrs: inlinehint mustprogress uwtable
define linkonce_odr dso_local void @_ZSt8_DestroyIPN4Luau7CodeGen3A6413IrRegAllocA645SpillES4_EvT_S6_RSaIT0_E(ptr noundef %0, ptr noundef %1, ptr noundef nonnull align 1 dereferenceable(1) %2) #8 comdat {
  %4 = alloca ptr, align 8
  %5 = alloca ptr, align 8
  %6 = alloca ptr, align 8
  store ptr %0, ptr %4, align 8, !tbaa !122
  store ptr %1, ptr %5, align 8, !tbaa !122
  store ptr %2, ptr %6, align 8, !tbaa !141
  %7 = load ptr, ptr %4, align 8, !tbaa !122
  %8 = load ptr, ptr %5, align 8, !tbaa !122
  call void @_ZSt8_DestroyIPN4Luau7CodeGen3A6413IrRegAllocA645SpillEEvT_S6_(ptr noundef %7, ptr noundef %8)
  ret void
}

; Function Attrs: mustprogress nounwind uwtable
define linkonce_odr dso_local noundef nonnull align 1 dereferenceable(1) ptr @_ZNSt12_Vector_baseIN4Luau7CodeGen3A6413IrRegAllocA645SpillESaIS4_EE19_M_get_Tp_allocatorEv(ptr noundef nonnull align 8 dereferenceable(24) %0) #1 comdat align 2 {
  %2 = alloca ptr, align 8
  store ptr %0, ptr %2, align 8, !tbaa !137
  %3 = load ptr, ptr %2, align 8
  %4 = getelementptr inbounds nuw %"struct.std::_Vector_base", ptr %3, i32 0, i32 0
  ret ptr %4
}

; Function Attrs: mustprogress nounwind uwtable
define linkonce_odr dso_local void @_ZNSt6vectorIN4Luau7CodeGen3A6413IrRegAllocA645SpillESaIS4_EE15_M_erase_at_endEPS4_(ptr noundef nonnull align 8 dereferenceable(24) %0, ptr noundef %1) #1 comdat align 2 personality ptr @__gxx_personality_v0 {
  %3 = alloca ptr, align 8
  %4 = alloca ptr, align 8
  %5 = alloca i64, align 8
  store ptr %0, ptr %3, align 8, !tbaa !53
  store ptr %1, ptr %4, align 8, !tbaa !122
  %6 = load ptr, ptr %3, align 8
  call void @llvm.lifetime.start.p0(i64 8, ptr %5) #16
  %7 = getelementptr inbounds nuw %"struct.std::_Vector_base", ptr %6, i32 0, i32 0
  %8 = getelementptr inbounds nuw %"struct.std::_Vector_base<Luau::CodeGen::A64::IrRegAllocA64::Spill, std::allocator<Luau::CodeGen::A64::IrRegAllocA64::Spill>>::_Vector_impl_data", ptr %7, i32 0, i32 1
  %9 = load ptr, ptr %8, align 8, !tbaa !61
  %10 = load ptr, ptr %4, align 8, !tbaa !122
  %11 = ptrtoint ptr %9 to i64
  %12 = ptrtoint ptr %10 to i64
  %13 = sub i64 %11, %12
  %14 = sdiv exact i64 %13, 8
  store i64 %14, ptr %5, align 8, !tbaa !86
  %15 = load i64, ptr %5, align 8, !tbaa !86
  %16 = icmp ne i64 %15, 0
  br i1 %16, label %17, label %27

17:                                               ; preds = %2
  %18 = load ptr, ptr %4, align 8, !tbaa !122
  %19 = getelementptr inbounds nuw %"struct.std::_Vector_base", ptr %6, i32 0, i32 0
  %20 = getelementptr inbounds nuw %"struct.std::_Vector_base<Luau::CodeGen::A64::IrRegAllocA64::Spill, std::allocator<Luau::CodeGen::A64::IrRegAllocA64::Spill>>::_Vector_impl_data", ptr %19, i32 0, i32 1
  %21 = load ptr, ptr %20, align 8, !tbaa !61
  %22 = call noundef nonnull align 1 dereferenceable(1) ptr @_ZNSt12_Vector_baseIN4Luau7CodeGen3A6413IrRegAllocA645SpillESaIS4_EE19_M_get_Tp_allocatorEv(ptr noundef nonnull align 8 dereferenceable(24) %6) #16
  invoke void @_ZSt8_DestroyIPN4Luau7CodeGen3A6413IrRegAllocA645SpillES4_EvT_S6_RSaIT0_E(ptr noundef %18, ptr noundef %21, ptr noundef nonnull align 1 dereferenceable(1) %22)
          to label %23 unwind label %28

23:                                               ; preds = %17
  %24 = load ptr, ptr %4, align 8, !tbaa !122
  %25 = getelementptr inbounds nuw %"struct.std::_Vector_base", ptr %6, i32 0, i32 0
  %26 = getelementptr inbounds nuw %"struct.std::_Vector_base<Luau::CodeGen::A64::IrRegAllocA64::Spill, std::allocator<Luau::CodeGen::A64::IrRegAllocA64::Spill>>::_Vector_impl_data", ptr %25, i32 0, i32 1
  store ptr %24, ptr %26, align 8, !tbaa !61
  br label %27

27:                                               ; preds = %23, %2
  call void @llvm.lifetime.end.p0(i64 8, ptr %5) #16
  ret void

28:                                               ; preds = %17
  %29 = landingpad { ptr, i32 }
          catch ptr null
  %30 = extractvalue { ptr, i32 } %29, 0
  call void @__clang_call_terminate(ptr %30) #17
  unreachable
}

; Function Attrs: mustprogress nounwind uwtable
define dso_local noundef nonnull align 4 dereferenceable(140) ptr @_ZN4Luau7CodeGen3A6413IrRegAllocA646getSetENS1_7KindA64E(ptr noundef nonnull align 8 dereferenceable(325) %0, i8 noundef zeroext %1) #1 align 2 {
  %3 = alloca ptr, align 8
  %4 = alloca ptr, align 8
  %5 = alloca i8, align 1
  store ptr %0, ptr %4, align 8, !tbaa !20
  store i8 %1, ptr %5, align 1, !tbaa !58
  %6 = load ptr, ptr %4, align 8
  %7 = load i8, ptr %5, align 1, !tbaa !58
  switch i8 %7, label %12 [
    i8 2, label %8
    i8 1, label %8
    i8 3, label %10
    i8 4, label %10
    i8 5, label %10
  ]

8:                                                ; preds = %2, %2
  %9 = getelementptr inbounds nuw %"struct.Luau::CodeGen::A64::IrRegAllocA64", ptr %6, i32 0, i32 2
  store ptr %9, ptr %3, align 8
  br label %13

10:                                               ; preds = %2, %2, %2
  %11 = getelementptr inbounds nuw %"struct.Luau::CodeGen::A64::IrRegAllocA64", ptr %6, i32 0, i32 3
  store ptr %11, ptr %3, align 8
  br label %13

12:                                               ; preds = %2
  unreachable

13:                                               ; preds = %10, %8
  %14 = load ptr, ptr %3, align 8
  ret ptr %14
}

; Function Attrs: mustprogress uwtable
define linkonce_odr dso_local void @_ZNSt6vectorIN4Luau7CodeGen3A6413IrRegAllocA645SpillESaIS4_EE6resizeEm(ptr noundef nonnull align 8 dereferenceable(24) %0, i64 noundef %1) #2 comdat align 2 {
  %3 = alloca ptr, align 8
  %4 = alloca i64, align 8
  store ptr %0, ptr %3, align 8, !tbaa !53
  store i64 %1, ptr %4, align 8, !tbaa !86
  %5 = load ptr, ptr %3, align 8
  %6 = load i64, ptr %4, align 8, !tbaa !86
  %7 = call noundef i64 @_ZNKSt6vectorIN4Luau7CodeGen3A6413IrRegAllocA645SpillESaIS4_EE4sizeEv(ptr noundef nonnull align 8 dereferenceable(24) %5) #16
  %8 = icmp ugt i64 %6, %7
  br i1 %8, label %9, label %13

9:                                                ; preds = %2
  %10 = load i64, ptr %4, align 8, !tbaa !86
  %11 = call noundef i64 @_ZNKSt6vectorIN4Luau7CodeGen3A6413IrRegAllocA645SpillESaIS4_EE4sizeEv(ptr noundef nonnull align 8 dereferenceable(24) %5) #16
  %12 = sub i64 %10, %11
  call void @_ZNSt6vectorIN4Luau7CodeGen3A6413IrRegAllocA645SpillESaIS4_EE17_M_default_appendEm(ptr noundef nonnull align 8 dereferenceable(24) %5, i64 noundef %12)
  br label %24

13:                                               ; preds = %2
  %14 = load i64, ptr %4, align 8, !tbaa !86
  %15 = call noundef i64 @_ZNKSt6vectorIN4Luau7CodeGen3A6413IrRegAllocA645SpillESaIS4_EE4sizeEv(ptr noundef nonnull align 8 dereferenceable(24) %5) #16
  %16 = icmp ult i64 %14, %15
  br i1 %16, label %17, label %23

17:                                               ; preds = %13
  %18 = getelementptr inbounds nuw %"struct.std::_Vector_base", ptr %5, i32 0, i32 0
  %19 = getelementptr inbounds nuw %"struct.std::_Vector_base<Luau::CodeGen::A64::IrRegAllocA64::Spill, std::allocator<Luau::CodeGen::A64::IrRegAllocA64::Spill>>::_Vector_impl_data", ptr %18, i32 0, i32 0
  %20 = load ptr, ptr %19, align 8, !tbaa !60
  %21 = load i64, ptr %4, align 8, !tbaa !86
  %22 = getelementptr inbounds nuw %"struct.Luau::CodeGen::A64::IrRegAllocA64::Spill", ptr %20, i64 %21
  call void @_ZNSt6vectorIN4Luau7CodeGen3A6413IrRegAllocA645SpillESaIS4_EE15_M_erase_at_endEPS4_(ptr noundef nonnull align 8 dereferenceable(24) %5, ptr noundef %22) #16
  br label %23

23:                                               ; preds = %17, %13
  br label %24

24:                                               ; preds = %23, %9
  ret void
}

; Function Attrs: mustprogress uwtable
define dso_local i8 @_ZN4Luau7CodeGen3A6413IrRegAllocA647takeRegENS1_11RegisterA64Ej(ptr noundef nonnull align 8 dereferenceable(325) %0, i8 %1, i32 noundef %2) #2 align 2 {
  %4 = alloca %"struct.Luau::CodeGen::A64::RegisterA64", align 1
  %5 = alloca %"struct.Luau::CodeGen::A64::RegisterA64", align 1
  %6 = alloca ptr, align 8
  %7 = alloca i32, align 4
  %8 = alloca ptr, align 8
  %9 = getelementptr inbounds nuw %"struct.Luau::CodeGen::A64::RegisterA64", ptr %5, i32 0, i32 0
  store i8 %1, ptr %9, align 1
  store ptr %0, ptr %6, align 8, !tbaa !20
  store i32 %2, ptr %7, align 4, !tbaa !43
  %10 = load ptr, ptr %6, align 8
  call void @llvm.lifetime.start.p0(i64 8, ptr %8) #16
  %11 = load i8, ptr %5, align 1
  %12 = and i8 %11, 7
  %13 = call noundef nonnull align 4 dereferenceable(140) ptr @_ZN4Luau7CodeGen3A6413IrRegAllocA646getSetENS1_7KindA64E(ptr noundef nonnull align 8 dereferenceable(325) %10, i8 noundef zeroext %12)
  store ptr %13, ptr %8, align 8, !tbaa !41
  %14 = load i8, ptr %5, align 1
  %15 = lshr i8 %14, 3
  %16 = zext i8 %15 to i32
  %17 = shl i32 1, %16
  %18 = xor i32 %17, -1
  %19 = load ptr, ptr %8, align 8, !tbaa !41
  %20 = getelementptr inbounds nuw %"struct.Luau::CodeGen::A64::IrRegAllocA64::Set", ptr %19, i32 0, i32 1
  %21 = load i32, ptr %20, align 4, !tbaa !51
  %22 = and i32 %21, %18
  store i32 %22, ptr %20, align 4, !tbaa !51
  %23 = load i32, ptr %7, align 4, !tbaa !43
  %24 = load ptr, ptr %8, align 8, !tbaa !41
  %25 = getelementptr inbounds nuw %"struct.Luau::CodeGen::A64::IrRegAllocA64::Set", ptr %24, i32 0, i32 3
  %26 = load i8, ptr %5, align 1
  %27 = lshr i8 %26, 3
  %28 = zext i8 %27 to i64
  %29 = getelementptr inbounds nuw [32 x i32], ptr %25, i64 0, i64 %28
  store i32 %23, ptr %29, align 4, !tbaa !43
  call void @llvm.memcpy.p0.p0.i64(ptr align 1 %4, ptr align 1 %5, i64 1, i1 false), !tbaa.struct !81
  call void @llvm.lifetime.end.p0(i64 8, ptr %8) #16
  %30 = getelementptr inbounds nuw %"struct.Luau::CodeGen::A64::RegisterA64", ptr %4, i32 0, i32 0
  %31 = load i8, ptr %30, align 1
  ret i8 %31
}

; Function Attrs: mustprogress nounwind uwtable
define linkonce_odr dso_local noundef nonnull align 4 dereferenceable(8) ptr @_ZNSt6vectorIN4Luau7CodeGen3A6413IrRegAllocA645SpillESaIS4_EEixEm(ptr noundef nonnull align 8 dereferenceable(24) %0, i64 noundef %1) #1 comdat align 2 {
  %3 = alloca ptr, align 8
  %4 = alloca i64, align 8
  store ptr %0, ptr %3, align 8, !tbaa !53
  store i64 %1, ptr %4, align 8, !tbaa !86
  %5 = load ptr, ptr %3, align 8
  %6 = getelementptr inbounds nuw %"struct.std::_Vector_base", ptr %5, i32 0, i32 0
  %7 = getelementptr inbounds nuw %"struct.std::_Vector_base<Luau::CodeGen::A64::IrRegAllocA64::Spill, std::allocator<Luau::CodeGen::A64::IrRegAllocA64::Spill>>::_Vector_impl_data", ptr %6, i32 0, i32 0
  %8 = load ptr, ptr %7, align 8, !tbaa !60
  %9 = load i64, ptr %4, align 8, !tbaa !86
  %10 = getelementptr inbounds nuw %"struct.Luau::CodeGen::A64::IrRegAllocA64::Spill", ptr %8, i64 %9
  ret ptr %10
}

; Function Attrs: mustprogress nounwind uwtable
define linkonce_odr dso_local noundef i64 @_ZNKSt6vectorIN4Luau7CodeGen3A6413IrRegAllocA645SpillESaIS4_EE4sizeEv(ptr noundef nonnull align 8 dereferenceable(24) %0) #1 comdat align 2 {
  %2 = alloca ptr, align 8
  store ptr %0, ptr %2, align 8, !tbaa !53
  %3 = load ptr, ptr %2, align 8
  %4 = getelementptr inbounds nuw %"struct.std::_Vector_base", ptr %3, i32 0, i32 0
  %5 = getelementptr inbounds nuw %"struct.std::_Vector_base<Luau::CodeGen::A64::IrRegAllocA64::Spill, std::allocator<Luau::CodeGen::A64::IrRegAllocA64::Spill>>::_Vector_impl_data", ptr %4, i32 0, i32 1
  %6 = load ptr, ptr %5, align 8, !tbaa !61
  %7 = getelementptr inbounds nuw %"struct.std::_Vector_base", ptr %3, i32 0, i32 0
  %8 = getelementptr inbounds nuw %"struct.std::_Vector_base<Luau::CodeGen::A64::IrRegAllocA64::Spill, std::allocator<Luau::CodeGen::A64::IrRegAllocA64::Spill>>::_Vector_impl_data", ptr %7, i32 0, i32 0
  %9 = load ptr, ptr %8, align 8, !tbaa !60
  %10 = ptrtoint ptr %6 to i64
  %11 = ptrtoint ptr %9 to i64
  %12 = sub i64 %10, %11
  %13 = sdiv exact i64 %12, 8
  ret i64 %13
}

; Function Attrs: mustprogress uwtable
define dso_local void @_ZN4Luau7CodeGen3A6413IrRegAllocA647restoreERNS1_18AssemblyBuilderA64Em(ptr noundef nonnull align 8 dereferenceable(325) %0, ptr noundef nonnull align 8 dereferenceable(176) %1, i64 noundef %2) #2 align 2 {
  %4 = alloca ptr, align 8
  %5 = alloca ptr, align 8
  %6 = alloca i64, align 8
  %7 = alloca i64, align 8
  %8 = alloca %"struct.Luau::CodeGen::A64::IrRegAllocA64::Spill", align 4
  %9 = alloca %"struct.Luau::CodeGen::A64::RegisterA64", align 1
  %10 = alloca %"struct.Luau::CodeGen::A64::RegisterA64", align 1
  %11 = alloca %"struct.Luau::CodeGen::A64::RegisterA64", align 1
  store ptr %0, ptr %4, align 8, !tbaa !20
  store ptr %1, ptr %5, align 8, !tbaa !97
  store i64 %2, ptr %6, align 8, !tbaa !86
  %12 = load ptr, ptr %4, align 8
  %13 = load i64, ptr %6, align 8, !tbaa !86
  %14 = getelementptr inbounds nuw %"struct.Luau::CodeGen::A64::IrRegAllocA64", ptr %12, i32 0, i32 4
  %15 = call noundef i64 @_ZNKSt6vectorIN4Luau7CodeGen3A6413IrRegAllocA645SpillESaIS4_EE4sizeEv(ptr noundef nonnull align 8 dereferenceable(24) %14) #16
  %16 = icmp ult i64 %13, %15
  br i1 %16, label %17, label %48

17:                                               ; preds = %3
  call void @llvm.lifetime.start.p0(i64 8, ptr %7) #16
  %18 = load i64, ptr %6, align 8, !tbaa !86
  store i64 %18, ptr %7, align 8, !tbaa !86
  br label %19

19:                                               ; preds = %42, %17
  %20 = load i64, ptr %7, align 8, !tbaa !86
  %21 = getelementptr inbounds nuw %"struct.Luau::CodeGen::A64::IrRegAllocA64", ptr %12, i32 0, i32 4
  %22 = call noundef i64 @_ZNKSt6vectorIN4Luau7CodeGen3A6413IrRegAllocA645SpillESaIS4_EE4sizeEv(ptr noundef nonnull align 8 dereferenceable(24) %21) #16
  %23 = icmp ult i64 %20, %22
  br i1 %23, label %25, label %24

24:                                               ; preds = %19
  call void @llvm.lifetime.end.p0(i64 8, ptr %7) #16
  br label %45

25:                                               ; preds = %19
  call void @llvm.lifetime.start.p0(i64 8, ptr %8) #16
  %26 = getelementptr inbounds nuw %"struct.Luau::CodeGen::A64::IrRegAllocA64", ptr %12, i32 0, i32 4
  %27 = load i64, ptr %7, align 8, !tbaa !86
  %28 = call noundef nonnull align 4 dereferenceable(8) ptr @_ZNSt6vectorIN4Luau7CodeGen3A6413IrRegAllocA645SpillESaIS4_EEixEm(ptr noundef nonnull align 8 dereferenceable(24) %26, i64 noundef %27) #16
  call void @llvm.memcpy.p0.p0.i64(ptr align 4 %8, ptr align 4 %28, i64 8, i1 false), !tbaa.struct !133
  call void @llvm.lifetime.start.p0(i64 1, ptr %9) #16
  %29 = getelementptr inbounds nuw %"struct.Luau::CodeGen::A64::IrRegAllocA64::Spill", ptr %8, i32 0, i32 1
  call void @llvm.memcpy.p0.p0.i64(ptr align 1 %10, ptr align 4 %29, i64 1, i1 false), !tbaa.struct !81
  %30 = getelementptr inbounds nuw %"struct.Luau::CodeGen::A64::IrRegAllocA64::Spill", ptr %8, i32 0, i32 0
  %31 = load i32, ptr %30, align 4, !tbaa !101
  %32 = getelementptr inbounds nuw %"struct.Luau::CodeGen::A64::RegisterA64", ptr %10, i32 0, i32 0
  %33 = load i8, ptr %32, align 1
  %34 = call i8 @_ZN4Luau7CodeGen3A6413IrRegAllocA647takeRegENS1_11RegisterA64Ej(ptr noundef nonnull align 8 dereferenceable(325) %12, i8 %33, i32 noundef %31)
  %35 = getelementptr inbounds nuw %"struct.Luau::CodeGen::A64::RegisterA64", ptr %9, i32 0, i32 0
  store i8 %34, ptr %35, align 1
  %36 = load ptr, ptr %5, align 8, !tbaa !97
  %37 = getelementptr inbounds nuw %"struct.Luau::CodeGen::A64::IrRegAllocA64", ptr %12, i32 0, i32 5
  %38 = getelementptr inbounds nuw %"struct.Luau::CodeGen::A64::IrRegAllocA64", ptr %12, i32 0, i32 0
  %39 = load ptr, ptr %38, align 8, !tbaa !68
  call void @llvm.memcpy.p0.p0.i64(ptr align 1 %11, ptr align 1 %9, i64 1, i1 false), !tbaa.struct !81
  %40 = getelementptr inbounds nuw %"struct.Luau::CodeGen::A64::RegisterA64", ptr %11, i32 0, i32 0
  %41 = load i8, ptr %40, align 1
  call void @_ZN4Luau7CodeGen3A64L11restoreInstERNS1_18AssemblyBuilderA64ERjRNS0_10IrFunctionERKNS1_13IrRegAllocA645SpillENS1_11RegisterA64E(ptr noundef nonnull align 8 dereferenceable(176) %36, ptr noundef nonnull align 4 dereferenceable(4) %37, ptr noundef nonnull align 8 dereferenceable(624) %39, ptr noundef nonnull align 4 dereferenceable(8) %8, i8 %41)
  call void @llvm.lifetime.end.p0(i64 1, ptr %9) #16
  call void @llvm.lifetime.end.p0(i64 8, ptr %8) #16
  br label %42

42:                                               ; preds = %25
  %43 = load i64, ptr %7, align 8, !tbaa !86
  %44 = add i64 %43, 1
  store i64 %44, ptr %7, align 8, !tbaa !86
  br label %19, !llvm.loop !134

45:                                               ; preds = %24
  %46 = getelementptr inbounds nuw %"struct.Luau::CodeGen::A64::IrRegAllocA64", ptr %12, i32 0, i32 4
  %47 = load i64, ptr %6, align 8, !tbaa !86
  call void @_ZNSt6vectorIN4Luau7CodeGen3A6413IrRegAllocA645SpillESaIS4_EE6resizeEm(ptr noundef nonnull align 8 dereferenceable(24) %46, i64 noundef %47)
  br label %48

48:                                               ; preds = %45, %3
  ret void
}