; Function Attrs: mustprogress uwtable
define dso_local void @_ZN4Luau7CodeGen3A6413IrRegAllocA647restoreERNS1_18AssemblyBuilderA64Em(ptr noundef nonnull align 8 dereferenceable(325) %0, ptr noundef nonnull align 8 dereferenceable(176) %1, i64 noundef %2) local_unnamed_addr #7 align 2 personality ptr @__gxx_personality_v0 {
  %4 = getelementptr inbounds nuw i8, ptr %0, i64 296
  %5 = getelementptr inbounds nuw i8, ptr %0, i64 304
  %6 = load ptr, ptr %5, align 8, !tbaa !56
  %7 = load ptr, ptr %4, align 8, !tbaa !57
  %8 = ptrtoint ptr %6 to i64
  %9 = ptrtoint ptr %7 to i64
  %10 = sub i64 %8, %9
  %11 = ashr exact i64 %10, 3
  %12 = icmp ult i64 %2, %11
  br i1 %12, label %.lr.ph, label %_ZNSt6vectorIN4Luau7CodeGen3A6413IrRegAllocA645SpillESaIS4_EE6resizeEm.exit

.lr.ph:                                           ; preds = %3
  %13 = getelementptr inbounds nuw i8, ptr %0, i64 320
  br label %22

._crit_edge:                                      ; preds = %22
  %14 = icmp ugt i64 %2, %44
  br i1 %14, label %15, label %17

15:                                               ; preds = %._crit_edge
  %16 = sub nuw i64 %2, %44
  tail call void @_ZNSt6vectorIN4Luau7CodeGen3A6413IrRegAllocA645SpillESaIS4_EE17_M_default_appendEm(ptr noundef nonnull align 8 dereferenceable(24) %4, i64 noundef %16)
  br label %_ZNSt6vectorIN4Luau7CodeGen3A6413IrRegAllocA645SpillESaIS4_EE6resizeEm.exit

17:                                               ; preds = %._crit_edge
  %18 = icmp ult i64 %2, %44
  br i1 %18, label %19, label %_ZNSt6vectorIN4Luau7CodeGen3A6413IrRegAllocA645SpillESaIS4_EE6resizeEm.exit

19:                                               ; preds = %17
  %20 = getelementptr inbounds nuw %"struct.Luau::CodeGen::A64::IrRegAllocA64::Spill", ptr %40, i64 %2
  %.not.i.i = icmp eq ptr %39, %20
  br i1 %.not.i.i, label %_ZNSt6vectorIN4Luau7CodeGen3A6413IrRegAllocA645SpillESaIS4_EE6resizeEm.exit, label %21

21:                                               ; preds = %19
  store ptr %20, ptr %5, align 8, !tbaa !56
  br label %_ZNSt6vectorIN4Luau7CodeGen3A6413IrRegAllocA645SpillESaIS4_EE6resizeEm.exit

22:                                               ; preds = %.lr.ph, %22
  %23 = phi ptr [ %7, %.lr.ph ], [ %40, %22 ]
  %.013 = phi i64 [ %2, %.lr.ph ], [ %38, %22 ]
  %24 = getelementptr inbounds nuw %"struct.Luau::CodeGen::A64::IrRegAllocA64::Spill", ptr %23, i64 %.013
  %25 = load i64, ptr %24, align 4
  %.sroa.0.0.extract.trunc = trunc i64 %25 to i32
  %.sroa.5.0.extract.shift = lshr i64 %25, 32
  %.sroa.5.0.extract.trunc = trunc i64 %.sroa.5.0.extract.shift to i8
  %.sroa.6.0.extract.shift = lshr i64 %25, 40
  %.sroa.6.0.extract.trunc = trunc i64 %.sroa.6.0.extract.shift to i8
  %26 = and i8 %.sroa.5.0.extract.trunc, 7
  %.off.i.i = add nsw i8 %26, -1
  %switch.i.i = icmp ult i8 %.off.i.i, 2
  %.0.v.i.i = select i1 %switch.i.i, i64 16, i64 156
  %.0.i.i = getelementptr inbounds nuw i8, ptr %0, i64 %.0.v.i.i
  %27 = lshr i8 %.sroa.5.0.extract.trunc, 3
  %28 = zext nneg i8 %27 to i32
  %29 = shl nuw i32 1, %28
  %30 = xor i32 %29, -1
  %31 = getelementptr inbounds nuw i8, ptr %.0.i.i, i64 4
  %32 = load i32, ptr %31, align 4, !tbaa !21
  %33 = and i32 %32, %30
  store i32 %33, ptr %31, align 4, !tbaa !21
  %34 = getelementptr inbounds nuw i8, ptr %.0.i.i, i64 12
  %35 = zext nneg i8 %27 to i64
  %36 = getelementptr inbounds nuw [32 x i32], ptr %34, i64 0, i64 %35
  store i32 %.sroa.0.0.extract.trunc, ptr %36, align 4, !tbaa !37
  %37 = load ptr, ptr %0, align 8, !tbaa !53
  tail call fastcc void @_ZN4Luau7CodeGen3A64L11restoreInstERNS1_18AssemblyBuilderA64ERjRNS0_10IrFunctionERKNS1_13IrRegAllocA645SpillENS1_11RegisterA64E(ptr noundef nonnull align 8 dereferenceable(176) %1, ptr noundef nonnull align 4 dereferenceable(4) %13, ptr noundef nonnull align 8 dereferenceable(624) %37, i32 %.sroa.0.0.extract.trunc, i8 %.sroa.6.0.extract.trunc, i8 %.sroa.5.0.extract.trunc)
  %38 = add nuw i64 %.013, 1
  %39 = load ptr, ptr %5, align 8, !tbaa !56
  %40 = load ptr, ptr %4, align 8, !tbaa !57
  %41 = ptrtoint ptr %39 to i64
  %42 = ptrtoint ptr %40 to i64
  %43 = sub i64 %41, %42
  %44 = ashr exact i64 %43, 3
  %45 = icmp ult i64 %38, %44
  br i1 %45, label %22, label %._crit_edge, !llvm.loop !90

_ZNSt6vectorIN4Luau7CodeGen3A6413IrRegAllocA645SpillESaIS4_EE6resizeEm.exit: ; preds = %21, %19, %17, %15, %3
  ret void
}